target datalayout = "e-m:e-p270:32:32-p271:32:32-p272:64:64-i64:64-i128:128-f80:128-n8:16:32:64-S128"
target triple = "x86_64-pc-linux-gnu"

@.str.1 = private unnamed_addr constant [9 x i8] c"t_zset.c\00", align 1
@.str.8 = private unnamed_addr constant [33 x i8] c"(eptr = lpPrev(zl,sptr)) != NULL\00", align 1

; Function Attrs: nounwind uwtable
define dso_local ptr @zzlLastInLexRange(ptr noundef %0, ptr noundef %1) #0 {
  %3 = alloca ptr, align 8
  %4 = alloca ptr, align 8
  %5 = alloca ptr, align 8
  %6 = alloca ptr, align 8
  %7 = alloca ptr, align 8
  %8 = alloca i32, align 4
  store ptr %0, ptr %4, align 8, !tbaa !11
  store ptr %1, ptr %5, align 8, !tbaa !45
  call void @llvm.lifetime.start.p0(i64 8, ptr %6) #12
  %9 = load ptr, ptr %4, align 8, !tbaa !11
  %10 = call ptr @lpSeek(ptr noundef %9, i64 noundef -2)
  store ptr %10, ptr %6, align 8, !tbaa !11
  call void @llvm.lifetime.start.p0(i64 8, ptr %7) #12
  %11 = load ptr, ptr %4, align 8, !tbaa !11
  %12 = load ptr, ptr %5, align 8, !tbaa !45
  %13 = call i32 @zzlIsInLexRange(ptr noundef %11, ptr noundef %12)
  %14 = icmp ne i32 %13, 0
  br i1 %14, label %16, label %15

15:                                               ; preds = %2
  store ptr null, ptr %3, align 8
  store i32 1, ptr %8, align 4
  br label %57

16:                                               ; preds = %2
  br label %17

17:                                               ; preds = %55, %16
  %18 = load ptr, ptr %6, align 8, !tbaa !11
  %19 = icmp ne ptr %18, null
  br i1 %19, label %20, label %56

20:                                               ; preds = %17
  %21 = load ptr, ptr %6, align 8, !tbaa !11
  %22 = load ptr, ptr %5, align 8, !tbaa !45
  %23 = call i32 @zzlLexValueLteMax(ptr noundef %21, ptr noundef %22)
  %24 = icmp ne i32 %23, 0
  br i1 %24, label %25, label %33

25:                                               ; preds = %20
  %26 = load ptr, ptr %6, align 8, !tbaa !11
  %27 = load ptr, ptr %5, align 8, !tbaa !45
  %28 = call i32 @zzlLexValueGteMin(ptr noundef %26, ptr noundef %27)
  %29 = icmp ne i32 %28, 0
  br i1 %29, label %30, label %32

30:                                               ; preds = %25
  %31 = load ptr, ptr %6, align 8, !tbaa !11
  store ptr %31, ptr %3, align 8
  store i32 1, ptr %8, align 4
  br label %57

32:                                               ; preds = %25
  store ptr null, ptr %3, align 8
  store i32 1, ptr %8, align 4
  br label %57

33:                                               ; preds = %20
  %34 = load ptr, ptr %4, align 8, !tbaa !11
  %35 = load ptr, ptr %6, align 8, !tbaa !11
  %36 = call ptr @lpPrev(ptr noundef %34, ptr noundef %35)
  store ptr %36, ptr %7, align 8, !tbaa !11
  %37 = load ptr, ptr %7, align 8, !tbaa !11
  %38 = icmp ne ptr %37, null
  br i1 %38, label %39, label %54

39:                                               ; preds = %33
  %40 = load ptr, ptr %4, align 8, !tbaa !11
  %41 = load ptr, ptr %7, align 8, !tbaa !11
  %42 = call ptr @lpPrev(ptr noundef %40, ptr noundef %41)
  store ptr %42, ptr %6, align 8, !tbaa !11
  %43 = icmp ne ptr %42, null
  %44 = xor i1 %43, true
  %45 = xor i1 %44, true
  %46 = zext i1 %45 to i32
  %47 = sext i32 %46 to i64
  %48 = call i64 @llvm.expect.i64(i64 %47, i64 1)
  %49 = icmp ne i64 %48, 0
  br i1 %49, label %50, label %51

50:                                               ; preds = %39
  br label %53

51:                                               ; preds = %39
  call void @_serverAssert(ptr noundef @.str.8, ptr noundef @.str.1, i32 noundef 1045)
  call void @abort() #14
  unreachable

52:                                               ; No predecessors!
  br label %53

53:                                               ; preds = %52, %50
  br label %55

54:                                               ; preds = %33
  store ptr null, ptr %6, align 8, !tbaa !11
  br label %55

55:                                               ; preds = %54, %53
  br label %17, !llvm.loop !104

56:                                               ; preds = %17
  store ptr null, ptr %3, align 8
  store i32 1, ptr %8, align 4
  br label %57

57:                                               ; preds = %56, %32, %30, %15
  call void @llvm.lifetime.end.p0(i64 8, ptr %7) #12
  call void @llvm.lifetime.end.p0(i64 8, ptr %6) #12
  %58 = load ptr, ptr %3, align 8
  ret ptr %58
}