; Function Attrs: nounwind uwtable
define dso_local ptr @zzlLastInLexRange(ptr noundef %0, ptr noundef readonly captures(none) %1) local_unnamed_addr #0 {
  %3 = tail call ptr @lpSeek(ptr noundef %0, i64 noundef -2) #18
  %4 = tail call i32 @zzlIsInLexRange(ptr noundef %0, ptr noundef %1)
  %.not = icmp eq i32 %4, 0
  %.not1825 = icmp eq ptr %3, null
  %or.cond = select i1 %.not, i1 true, i1 %.not1825
  br i1 %or.cond, label %.loopexit, label %.lr.ph

.lr.ph:                                           ; preds = %2, %10
  %.01526 = phi ptr [ %11, %10 ], [ %3, %2 ]
  %5 = tail call i32 @zzlLexValueLteMax(ptr noundef nonnull %.01526, ptr noundef %1)
  %.not19 = icmp eq i32 %5, 0
  br i1 %.not19, label %8, label %6

6:                                                ; preds = %.lr.ph
  %7 = tail call i32 @zzlLexValueGteMin(ptr noundef nonnull %.01526, ptr noundef %1)
  %.not22 = icmp eq i32 %7, 0
  %..015 = select i1 %.not22, ptr null, ptr %.01526
  br label %.loopexit

8:                                                ; preds = %.lr.ph
  %9 = tail call ptr @lpPrev(ptr noundef %0, ptr noundef nonnull %.01526) #18
  %.not20 = icmp eq ptr %9, null
  br i1 %.not20, label %.loopexit, label %10

10:                                               ; preds = %8
  %11 = tail call ptr @lpPrev(ptr noundef %0, ptr noundef nonnull %9) #18
  %.not21 = icmp eq ptr %11, null
  br i1 %.not21, label %12, label %.lr.ph, !prof !40, !llvm.loop !93

12:                                               ; preds = %10
  tail call void @_serverAssert(ptr noundef nonnull @.str.8, ptr noundef nonnull @.str.1, i32 noundef 1045) #18
  tail call void @abort() #19
  unreachable

.loopexit:                                        ; preds = %8, %6, %2
  %.0 = phi ptr [ null, %2 ], [ %..015, %6 ], [ null, %8 ]
  ret ptr %.0
}